target datalayout = "e-m:e-p270:32:32-p271:32:32-p272:64:64-i64:64-i128:128-f80:128-n8:16:32:64-S128"
target triple = "x86_64-pc-linux-gnu"

%"class.std::basic_ostream" = type { ptr, %"class.std::basic_ios" }
%"class.std::basic_ios" = type { %"class.std::ios_base", ptr, i8, i8, ptr, ptr, ptr, ptr }
%"class.std::ios_base" = type { ptr, i64, i64, i32, i32, i32, ptr, %"struct.std::ios_base::_Words", [8 x %"struct.std::ios_base::_Words"], i32, ptr, %"class.std::locale" }
%"struct.std::ios_base::_Words" = type { ptr, i64 }
%"class.std::locale" = type { ptr }
%class.DFSRndNumGenerator = type { %class.AbsRndNumGenerator, %"class.std::__cxx11::basic_string", i32, i32, i8, ptr, i8, %"class.std::vector" }
%class.AbsRndNumGenerator = type { ptr }
%"class.std::__cxx11::basic_string" = type { %"struct.std::__cxx11::basic_string<char>::_Alloc_hider", i64, %union.anon }
%"struct.std::__cxx11::basic_string<char>::_Alloc_hider" = type { ptr }
%union.anon = type { i64, [8 x i8] }
%"class.std::vector" = type { %"struct.std::_Vector_base" }
%"struct.std::_Vector_base" = type { %"struct.std::_Vector_base<DFSRndNumGenerator::SearchState *, std::allocator<DFSRndNumGenerator::SearchState *>>::_Vector_impl" }
%"struct.std::_Vector_base<DFSRndNumGenerator::SearchState *, std::allocator<DFSRndNumGenerator::SearchState *>>::_Vector_impl" = type { %"struct.std::_Vector_base<DFSRndNumGenerator::SearchState *, std::allocator<DFSRndNumGenerator::SearchState *>>::_Vector_impl_data" }
%"struct.std::_Vector_base<DFSRndNumGenerator::SearchState *, std::allocator<DFSRndNumGenerator::SearchState *>>::_Vector_impl_data" = type { ptr, ptr, ptr }

@_ZSt4cout = external global %"class.std::basic_ostream", align 8
@.str.6 = private unnamed_addr constant [10 x i8] c"[current]\00", align 1
@.str.7 = private unnamed_addr constant [17 x i8] c", current_pos = \00", align 1
@.str.8 = private unnamed_addr constant [20 x i8] c", decision_depth = \00", align 1
@.str.9 = private unnamed_addr constant [12 x i8] c" , bound = \00", align 1
@.str.10 = private unnamed_addr constant [14 x i8] c", all_done = \00", align 1

; Function Attrs: mustprogress uwtable
define dso_local void @_ZN18DFSRndNumGenerator16dumpCurrentStateEiRKNSt7__cxx1112basic_stringIcSt11char_traitsIcESaIcEEE(ptr noundef nonnull align 8 dereferenceable(96) %0, i32 noundef %1, ptr noundef nonnull align 8 dereferenceable(32) %2) #5 align 2 {
  %4 = alloca ptr, align 8
  %5 = alloca i32, align 4
  %6 = alloca ptr, align 8
  store ptr %0, ptr %4, align 8
  store i32 %1, ptr %5, align 4
  store ptr %2, ptr %6, align 8
  %7 = load ptr, ptr %4, align 8
  %8 = call noundef nonnull align 8 dereferenceable(8) ptr @_ZStlsISt11char_traitsIcEERSt13basic_ostreamIcT_ES5_PKc(ptr noundef nonnull align 8 dereferenceable(8) @_ZSt4cout, ptr noundef @.str.6)
  %9 = load ptr, ptr %6, align 8
  %10 = call noundef nonnull align 8 dereferenceable(8) ptr @_ZStlsIcSt11char_traitsIcESaIcEERSt13basic_ostreamIT_T0_ES7_RKNSt7__cxx1112basic_stringIS4_S5_T1_EE(ptr noundef nonnull align 8 dereferenceable(8) %8, ptr noundef nonnull align 8 dereferenceable(32) %9)
  %11 = call noundef nonnull align 8 dereferenceable(8) ptr @_ZStlsISt11char_traitsIcEERSt13basic_ostreamIcT_ES5_PKc(ptr noundef nonnull align 8 dereferenceable(8) %10, ptr noundef @.str.7)
  %12 = getelementptr inbounds %class.DFSRndNumGenerator, ptr %7, i32 0, i32 3
  %13 = load i32, ptr %12, align 4
  %14 = call noundef nonnull align 8 dereferenceable(8) ptr @_ZNSolsEi(ptr noundef nonnull align 8 dereferenceable(8) %11, i32 noundef %13)
  %15 = call noundef nonnull align 8 dereferenceable(8) ptr @_ZStlsISt11char_traitsIcEERSt13basic_ostreamIcT_ES5_PKc(ptr noundef nonnull align 8 dereferenceable(8) %14, ptr noundef @.str.8)
  %16 = getelementptr inbounds %class.DFSRndNumGenerator, ptr %7, i32 0, i32 2
  %17 = load i32, ptr %16, align 8
  %18 = call noundef nonnull align 8 dereferenceable(8) ptr @_ZNSolsEi(ptr noundef nonnull align 8 dereferenceable(8) %15, i32 noundef %17)
  %19 = call noundef nonnull align 8 dereferenceable(8) ptr @_ZStlsISt11char_traitsIcEERSt13basic_ostreamIcT_ES5_PKc(ptr noundef nonnull align 8 dereferenceable(8) %18, ptr noundef @.str.9)
  %20 = load i32, ptr %5, align 4
  %21 = call noundef nonnull align 8 dereferenceable(8) ptr @_ZNSolsEi(ptr noundef nonnull align 8 dereferenceable(8) %19, i32 noundef %20)
  %22 = call noundef nonnull align 8 dereferenceable(8) ptr @_ZStlsISt11char_traitsIcEERSt13basic_ostreamIcT_ES5_PKc(ptr noundef nonnull align 8 dereferenceable(8) %21, ptr noundef @.str.10)
  %23 = getelementptr inbounds %class.DFSRndNumGenerator, ptr %7, i32 0, i32 4
  %24 = load i8, ptr %23, align 8
  %25 = trunc i8 %24 to i1
  %26 = call noundef nonnull align 8 dereferenceable(8) ptr @_ZNSolsEb(ptr noundef nonnull align 8 dereferenceable(8) %22, i1 noundef zeroext %25)
  %27 = call noundef nonnull align 8 dereferenceable(8) ptr @_ZNSolsEPFRSoS_E(ptr noundef nonnull align 8 dereferenceable(8) %26, ptr noundef @_ZSt4endlIcSt11char_traitsIcEERSt13basic_ostreamIT_T0_ES6_)
  ret void
}